target datalayout = "e-m:e-p270:32:32-p271:32:32-p272:64:64-i64:64-i128:128-f80:128-n8:16:32:64-S128"
target triple = "x86_64-pc-linux-gnu"

%struct.delta_index = type { i64, ptr, i64, i32, [0 x ptr] }

; Function Attrs: nounwind uwtable
define dso_local i64 @sizeof_delta_index(ptr noundef %0) #0 {
  %2 = alloca i64, align 8
  %3 = alloca ptr, align 8
  store ptr %0, ptr %3, align 8, !tbaa !33
  %4 = load ptr, ptr %3, align 8, !tbaa !33
  %5 = icmp ne ptr %4, null
  br i1 %5, label %6, label %10

6:                                                ; preds = %1
  %7 = load ptr, ptr %3, align 8, !tbaa !33
  %8 = getelementptr inbounds nuw %struct.delta_index, ptr %7, i32 0, i32 0
  %9 = load i64, ptr %8, align 8, !tbaa !8
  store i64 %9, ptr %2, align 8
  br label %11

10:                                               ; preds = %1
  store i64 0, ptr %2, align 8
  br label %11

11:                                               ; preds = %10, %6
  %12 = load i64, ptr %2, align 8
  ret i64 %12
}