; Function Attrs: mustprogress nofree norecurse nosync nounwind willreturn memory(argmem: read) uwtable
define dso_local i64 @sizeof_delta_index(ptr noundef readonly %0) local_unnamed_addr #7 {
  %.not = icmp eq ptr %0, null
  br i1 %.not, label %4, label %2

2:                                                ; preds = %1
  %3 = load i64, ptr %0, align 8, !tbaa !25
  br label %4

4:                                                ; preds = %1, %2
  %.0 = phi i64 [ %3, %2 ], [ 0, %1 ]
  ret i64 %.0
}